
determinante.cpp.elf:     file format elf32-avr


Disassembly of section .text:

00000000 <__vectors>:
   0:	71 c0       	rjmp	.+226    	; 0xe4 <__ctors_end>
   2:	00 00       	nop
   4:	8e c0       	rjmp	.+284    	; 0x122 <__bad_interrupt>
   6:	00 00       	nop
   8:	8c c0       	rjmp	.+280    	; 0x122 <__bad_interrupt>
   a:	00 00       	nop
   c:	8a c0       	rjmp	.+276    	; 0x122 <__bad_interrupt>
   e:	00 00       	nop
  10:	88 c0       	rjmp	.+272    	; 0x122 <__bad_interrupt>
  12:	00 00       	nop
  14:	86 c0       	rjmp	.+268    	; 0x122 <__bad_interrupt>
  16:	00 00       	nop
  18:	84 c0       	rjmp	.+264    	; 0x122 <__bad_interrupt>
  1a:	00 00       	nop
  1c:	82 c0       	rjmp	.+260    	; 0x122 <__bad_interrupt>
  1e:	00 00       	nop
  20:	80 c0       	rjmp	.+256    	; 0x122 <__bad_interrupt>
  22:	00 00       	nop
  24:	7e c0       	rjmp	.+252    	; 0x122 <__bad_interrupt>
  26:	00 00       	nop
  28:	7c c0       	rjmp	.+248    	; 0x122 <__bad_interrupt>
  2a:	00 00       	nop
  2c:	7a c0       	rjmp	.+244    	; 0x122 <__bad_interrupt>
  2e:	00 00       	nop
  30:	78 c0       	rjmp	.+240    	; 0x122 <__bad_interrupt>
  32:	00 00       	nop
  34:	76 c0       	rjmp	.+236    	; 0x122 <__bad_interrupt>
  36:	00 00       	nop
  38:	74 c0       	rjmp	.+232    	; 0x122 <__bad_interrupt>
  3a:	00 00       	nop
  3c:	72 c0       	rjmp	.+228    	; 0x122 <__bad_interrupt>
  3e:	00 00       	nop
  40:	70 c0       	rjmp	.+224    	; 0x122 <__bad_interrupt>
  42:	00 00       	nop
  44:	6e c0       	rjmp	.+220    	; 0x122 <__bad_interrupt>
  46:	00 00       	nop
  48:	6c c0       	rjmp	.+216    	; 0x122 <__bad_interrupt>
  4a:	00 00       	nop
  4c:	6a c0       	rjmp	.+212    	; 0x122 <__bad_interrupt>
  4e:	00 00       	nop
  50:	68 c0       	rjmp	.+208    	; 0x122 <__bad_interrupt>
  52:	00 00       	nop
  54:	66 c0       	rjmp	.+204    	; 0x122 <__bad_interrupt>
  56:	00 00       	nop
  58:	64 c0       	rjmp	.+200    	; 0x122 <__bad_interrupt>
  5a:	00 00       	nop
  5c:	62 c0       	rjmp	.+196    	; 0x122 <__bad_interrupt>
  5e:	00 00       	nop
  60:	60 c0       	rjmp	.+192    	; 0x122 <__bad_interrupt>
  62:	00 00       	nop
  64:	5e c0       	rjmp	.+188    	; 0x122 <__bad_interrupt>
  66:	00 00       	nop
  68:	5c c0       	rjmp	.+184    	; 0x122 <__bad_interrupt>
  6a:	00 00       	nop
  6c:	5a c0       	rjmp	.+180    	; 0x122 <__bad_interrupt>
  6e:	00 00       	nop
  70:	58 c0       	rjmp	.+176    	; 0x122 <__bad_interrupt>
  72:	00 00       	nop
  74:	56 c0       	rjmp	.+172    	; 0x122 <__bad_interrupt>
  76:	00 00       	nop
  78:	54 c0       	rjmp	.+168    	; 0x122 <__bad_interrupt>
  7a:	00 00       	nop
  7c:	52 c0       	rjmp	.+164    	; 0x122 <__bad_interrupt>
  7e:	00 00       	nop
  80:	50 c0       	rjmp	.+160    	; 0x122 <__bad_interrupt>
  82:	00 00       	nop
  84:	4e c0       	rjmp	.+156    	; 0x122 <__bad_interrupt>
  86:	00 00       	nop
  88:	4c c0       	rjmp	.+152    	; 0x122 <__bad_interrupt>
  8a:	00 00       	nop
  8c:	4a c0       	rjmp	.+148    	; 0x122 <__bad_interrupt>
  8e:	00 00       	nop
  90:	48 c0       	rjmp	.+144    	; 0x122 <__bad_interrupt>
  92:	00 00       	nop
  94:	46 c0       	rjmp	.+140    	; 0x122 <__bad_interrupt>
  96:	00 00       	nop
  98:	44 c0       	rjmp	.+136    	; 0x122 <__bad_interrupt>
  9a:	00 00       	nop
  9c:	42 c0       	rjmp	.+132    	; 0x122 <__bad_interrupt>
  9e:	00 00       	nop
  a0:	40 c0       	rjmp	.+128    	; 0x122 <__bad_interrupt>
  a2:	00 00       	nop
  a4:	3e c0       	rjmp	.+124    	; 0x122 <__bad_interrupt>
  a6:	00 00       	nop
  a8:	3c c0       	rjmp	.+120    	; 0x122 <__bad_interrupt>
  aa:	00 00       	nop
  ac:	3a c0       	rjmp	.+116    	; 0x122 <__bad_interrupt>
  ae:	00 00       	nop
  b0:	38 c0       	rjmp	.+112    	; 0x122 <__bad_interrupt>
  b2:	00 00       	nop
  b4:	36 c0       	rjmp	.+108    	; 0x122 <__bad_interrupt>
  b6:	00 00       	nop
  b8:	34 c0       	rjmp	.+104    	; 0x122 <__bad_interrupt>
  ba:	00 00       	nop
  bc:	32 c0       	rjmp	.+100    	; 0x122 <__bad_interrupt>
  be:	00 00       	nop
  c0:	30 c0       	rjmp	.+96     	; 0x122 <__bad_interrupt>
  c2:	00 00       	nop
  c4:	2e c0       	rjmp	.+92     	; 0x122 <__bad_interrupt>
  c6:	00 00       	nop
  c8:	2c c0       	rjmp	.+88     	; 0x122 <__bad_interrupt>
  ca:	00 00       	nop
  cc:	2a c0       	rjmp	.+84     	; 0x122 <__bad_interrupt>
  ce:	00 00       	nop
  d0:	28 c0       	rjmp	.+80     	; 0x122 <__bad_interrupt>
  d2:	00 00       	nop
  d4:	26 c0       	rjmp	.+76     	; 0x122 <__bad_interrupt>
  d6:	00 00       	nop
  d8:	24 c0       	rjmp	.+72     	; 0x122 <__bad_interrupt>
  da:	00 00       	nop
  dc:	22 c0       	rjmp	.+68     	; 0x122 <__bad_interrupt>
  de:	00 00       	nop
  e0:	20 c0       	rjmp	.+64     	; 0x122 <__bad_interrupt>
	...

000000e4 <__ctors_end>:
  e4:	11 24       	eor	r1, r1
  e6:	1f be       	out	0x3f, r1	; 63
  e8:	cf ef       	ldi	r28, 0xFF	; 255
  ea:	d1 e2       	ldi	r29, 0x21	; 33
  ec:	de bf       	out	0x3e, r29	; 62
  ee:	cd bf       	out	0x3d, r28	; 61
  f0:	00 e0       	ldi	r16, 0x00	; 0
  f2:	0c bf       	out	0x3c, r16	; 60

000000f4 <__do_copy_data>:
  f4:	12 e0       	ldi	r17, 0x02	; 2
  f6:	a0 e0       	ldi	r26, 0x00	; 0
  f8:	b2 e0       	ldi	r27, 0x02	; 2
  fa:	e6 e9       	ldi	r30, 0x96	; 150
  fc:	f6 e0       	ldi	r31, 0x06	; 6
  fe:	00 e0       	ldi	r16, 0x00	; 0
 100:	0b bf       	out	0x3b, r16	; 59
 102:	02 c0       	rjmp	.+4      	; 0x108 <__do_copy_data+0x14>
 104:	07 90       	elpm	r0, Z+
 106:	0d 92       	st	X+, r0
 108:	ae 31       	cpi	r26, 0x1E	; 30
 10a:	b1 07       	cpc	r27, r17
 10c:	d9 f7       	brne	.-10     	; 0x104 <__do_copy_data+0x10>

0000010e <__do_clear_bss>:
 10e:	22 e0       	ldi	r18, 0x02	; 2
 110:	ae e1       	ldi	r26, 0x1E	; 30
 112:	b2 e0       	ldi	r27, 0x02	; 2
 114:	01 c0       	rjmp	.+2      	; 0x118 <.do_clear_bss_start>

00000116 <.do_clear_bss_loop>:
 116:	1d 92       	st	X+, r1

00000118 <.do_clear_bss_start>:
 118:	a4 32       	cpi	r26, 0x24	; 36
 11a:	b2 07       	cpc	r27, r18
 11c:	e1 f7       	brne	.-8      	; 0x116 <.do_clear_bss_loop>
 11e:	02 d0       	rcall	.+4      	; 0x124 <main>
 120:	b8 c2       	rjmp	.+1392   	; 0x692 <_exit>

00000122 <__bad_interrupt>:
 122:	6e cf       	rjmp	.-292    	; 0x0 <__vectors>

00000124 <main>:
 124:	80 e0       	ldi	r24, 0x00	; 0
 126:	92 e0       	ldi	r25, 0x02	; 2
 128:	9f 93       	push	r25
 12a:	8f 93       	push	r24
 12c:	05 d0       	rcall	.+10     	; 0x138 <printf>
 12e:	0f 90       	pop	r0
 130:	0f 90       	pop	r0
 132:	80 e0       	ldi	r24, 0x00	; 0
 134:	90 e0       	ldi	r25, 0x00	; 0
 136:	08 95       	ret

00000138 <printf>:
 138:	cf 93       	push	r28
 13a:	df 93       	push	r29
 13c:	cd b7       	in	r28, 0x3d	; 61
 13e:	de b7       	in	r29, 0x3e	; 62
 140:	ae 01       	movw	r20, r28
 142:	4a 5f       	subi	r20, 0xFA	; 250
 144:	5f 4f       	sbci	r21, 0xFF	; 255
 146:	fa 01       	movw	r30, r20
 148:	61 91       	ld	r22, Z+
 14a:	71 91       	ld	r23, Z+
 14c:	af 01       	movw	r20, r30
 14e:	80 91 20 02 	lds	r24, 0x0220
 152:	90 91 21 02 	lds	r25, 0x0221
 156:	03 d0       	rcall	.+6      	; 0x15e <vfprintf>
 158:	df 91       	pop	r29
 15a:	cf 91       	pop	r28
 15c:	08 95       	ret

0000015e <vfprintf>:
 15e:	2f 92       	push	r2
 160:	3f 92       	push	r3
 162:	4f 92       	push	r4
 164:	5f 92       	push	r5
 166:	6f 92       	push	r6
 168:	7f 92       	push	r7
 16a:	8f 92       	push	r8
 16c:	9f 92       	push	r9
 16e:	af 92       	push	r10
 170:	bf 92       	push	r11
 172:	cf 92       	push	r12
 174:	df 92       	push	r13
 176:	ef 92       	push	r14
 178:	ff 92       	push	r15
 17a:	0f 93       	push	r16
 17c:	1f 93       	push	r17
 17e:	cf 93       	push	r28
 180:	df 93       	push	r29
 182:	cd b7       	in	r28, 0x3d	; 61
 184:	de b7       	in	r29, 0x3e	; 62
 186:	2c 97       	sbiw	r28, 0x0c	; 12
 188:	0f b6       	in	r0, 0x3f	; 63
 18a:	f8 94       	cli
 18c:	de bf       	out	0x3e, r29	; 62
 18e:	0f be       	out	0x3f, r0	; 63
 190:	cd bf       	out	0x3d, r28	; 61
 192:	7c 01       	movw	r14, r24
 194:	6b 01       	movw	r12, r22
 196:	8a 01       	movw	r16, r20
 198:	fc 01       	movw	r30, r24
 19a:	17 82       	std	Z+7, r1	; 0x07
 19c:	16 82       	std	Z+6, r1	; 0x06
 19e:	83 81       	ldd	r24, Z+3	; 0x03
 1a0:	81 ff       	sbrs	r24, 1
 1a2:	b0 c1       	rjmp	.+864    	; 0x504 <vfprintf+0x3a6>
 1a4:	ce 01       	movw	r24, r28
 1a6:	01 96       	adiw	r24, 0x01	; 1
 1a8:	4c 01       	movw	r8, r24
 1aa:	f7 01       	movw	r30, r14
 1ac:	93 81       	ldd	r25, Z+3	; 0x03
 1ae:	f6 01       	movw	r30, r12
 1b0:	93 fd       	sbrc	r25, 3
 1b2:	85 91       	lpm	r24, Z+
 1b4:	93 ff       	sbrs	r25, 3
 1b6:	81 91       	ld	r24, Z+
 1b8:	6f 01       	movw	r12, r30
 1ba:	88 23       	and	r24, r24
 1bc:	09 f4       	brne	.+2      	; 0x1c0 <vfprintf+0x62>
 1be:	9e c1       	rjmp	.+828    	; 0x4fc <vfprintf+0x39e>
 1c0:	85 32       	cpi	r24, 0x25	; 37
 1c2:	39 f4       	brne	.+14     	; 0x1d2 <vfprintf+0x74>
 1c4:	93 fd       	sbrc	r25, 3
 1c6:	85 91       	lpm	r24, Z+
 1c8:	93 ff       	sbrs	r25, 3
 1ca:	81 91       	ld	r24, Z+
 1cc:	6f 01       	movw	r12, r30
 1ce:	85 32       	cpi	r24, 0x25	; 37
 1d0:	21 f4       	brne	.+8      	; 0x1da <vfprintf+0x7c>
 1d2:	b7 01       	movw	r22, r14
 1d4:	90 e0       	ldi	r25, 0x00	; 0
 1d6:	c7 d1       	rcall	.+910    	; 0x566 <fputc>
 1d8:	e8 cf       	rjmp	.-48     	; 0x1aa <vfprintf+0x4c>
 1da:	51 2c       	mov	r5, r1
 1dc:	31 2c       	mov	r3, r1
 1de:	20 e0       	ldi	r18, 0x00	; 0
 1e0:	20 32       	cpi	r18, 0x20	; 32
 1e2:	a0 f4       	brcc	.+40     	; 0x20c <vfprintf+0xae>
 1e4:	8b 32       	cpi	r24, 0x2B	; 43
 1e6:	69 f0       	breq	.+26     	; 0x202 <vfprintf+0xa4>
 1e8:	30 f4       	brcc	.+12     	; 0x1f6 <vfprintf+0x98>
 1ea:	80 32       	cpi	r24, 0x20	; 32
 1ec:	59 f0       	breq	.+22     	; 0x204 <vfprintf+0xa6>
 1ee:	83 32       	cpi	r24, 0x23	; 35
 1f0:	69 f4       	brne	.+26     	; 0x20c <vfprintf+0xae>
 1f2:	20 61       	ori	r18, 0x10	; 16
 1f4:	2c c0       	rjmp	.+88     	; 0x24e <vfprintf+0xf0>
 1f6:	8d 32       	cpi	r24, 0x2D	; 45
 1f8:	39 f0       	breq	.+14     	; 0x208 <vfprintf+0xaa>
 1fa:	80 33       	cpi	r24, 0x30	; 48
 1fc:	39 f4       	brne	.+14     	; 0x20c <vfprintf+0xae>
 1fe:	21 60       	ori	r18, 0x01	; 1
 200:	26 c0       	rjmp	.+76     	; 0x24e <vfprintf+0xf0>
 202:	22 60       	ori	r18, 0x02	; 2
 204:	24 60       	ori	r18, 0x04	; 4
 206:	23 c0       	rjmp	.+70     	; 0x24e <vfprintf+0xf0>
 208:	28 60       	ori	r18, 0x08	; 8
 20a:	21 c0       	rjmp	.+66     	; 0x24e <vfprintf+0xf0>
 20c:	27 fd       	sbrc	r18, 7
 20e:	27 c0       	rjmp	.+78     	; 0x25e <vfprintf+0x100>
 210:	30 ed       	ldi	r19, 0xD0	; 208
 212:	38 0f       	add	r19, r24
 214:	3a 30       	cpi	r19, 0x0A	; 10
 216:	78 f4       	brcc	.+30     	; 0x236 <vfprintf+0xd8>
 218:	26 ff       	sbrs	r18, 6
 21a:	06 c0       	rjmp	.+12     	; 0x228 <vfprintf+0xca>
 21c:	fa e0       	ldi	r31, 0x0A	; 10
 21e:	5f 9e       	mul	r5, r31
 220:	30 0d       	add	r19, r0
 222:	11 24       	eor	r1, r1
 224:	53 2e       	mov	r5, r19
 226:	13 c0       	rjmp	.+38     	; 0x24e <vfprintf+0xf0>
 228:	8a e0       	ldi	r24, 0x0A	; 10
 22a:	38 9e       	mul	r3, r24
 22c:	30 0d       	add	r19, r0
 22e:	11 24       	eor	r1, r1
 230:	33 2e       	mov	r3, r19
 232:	20 62       	ori	r18, 0x20	; 32
 234:	0c c0       	rjmp	.+24     	; 0x24e <vfprintf+0xf0>
 236:	8e 32       	cpi	r24, 0x2E	; 46
 238:	21 f4       	brne	.+8      	; 0x242 <vfprintf+0xe4>
 23a:	26 fd       	sbrc	r18, 6
 23c:	5f c1       	rjmp	.+702    	; 0x4fc <vfprintf+0x39e>
 23e:	20 64       	ori	r18, 0x40	; 64
 240:	06 c0       	rjmp	.+12     	; 0x24e <vfprintf+0xf0>
 242:	8c 36       	cpi	r24, 0x6C	; 108
 244:	11 f4       	brne	.+4      	; 0x24a <vfprintf+0xec>
 246:	20 68       	ori	r18, 0x80	; 128
 248:	02 c0       	rjmp	.+4      	; 0x24e <vfprintf+0xf0>
 24a:	88 36       	cpi	r24, 0x68	; 104
 24c:	41 f4       	brne	.+16     	; 0x25e <vfprintf+0x100>
 24e:	f6 01       	movw	r30, r12
 250:	93 fd       	sbrc	r25, 3
 252:	85 91       	lpm	r24, Z+
 254:	93 ff       	sbrs	r25, 3
 256:	81 91       	ld	r24, Z+
 258:	6f 01       	movw	r12, r30
 25a:	81 11       	cpse	r24, r1
 25c:	c1 cf       	rjmp	.-126    	; 0x1e0 <vfprintf+0x82>
 25e:	98 2f       	mov	r25, r24
 260:	9f 7d       	andi	r25, 0xDF	; 223
 262:	95 54       	subi	r25, 0x45	; 69
 264:	93 30       	cpi	r25, 0x03	; 3
 266:	28 f4       	brcc	.+10     	; 0x272 <vfprintf+0x114>
 268:	0c 5f       	subi	r16, 0xFC	; 252
 26a:	1f 4f       	sbci	r17, 0xFF	; 255
 26c:	ff e3       	ldi	r31, 0x3F	; 63
 26e:	f9 83       	std	Y+1, r31	; 0x01
 270:	0d c0       	rjmp	.+26     	; 0x28c <vfprintf+0x12e>
 272:	83 36       	cpi	r24, 0x63	; 99
 274:	31 f0       	breq	.+12     	; 0x282 <vfprintf+0x124>
 276:	83 37       	cpi	r24, 0x73	; 115
 278:	71 f0       	breq	.+28     	; 0x296 <vfprintf+0x138>
 27a:	83 35       	cpi	r24, 0x53	; 83
 27c:	09 f0       	breq	.+2      	; 0x280 <vfprintf+0x122>
 27e:	57 c0       	rjmp	.+174    	; 0x32e <vfprintf+0x1d0>
 280:	21 c0       	rjmp	.+66     	; 0x2c4 <vfprintf+0x166>
 282:	f8 01       	movw	r30, r16
 284:	80 81       	ld	r24, Z
 286:	89 83       	std	Y+1, r24	; 0x01
 288:	0e 5f       	subi	r16, 0xFE	; 254
 28a:	1f 4f       	sbci	r17, 0xFF	; 255
 28c:	44 24       	eor	r4, r4
 28e:	43 94       	inc	r4
 290:	51 2c       	mov	r5, r1
 292:	54 01       	movw	r10, r8
 294:	14 c0       	rjmp	.+40     	; 0x2be <vfprintf+0x160>
 296:	38 01       	movw	r6, r16
 298:	f2 e0       	ldi	r31, 0x02	; 2
 29a:	6f 0e       	add	r6, r31
 29c:	71 1c       	adc	r7, r1
 29e:	f8 01       	movw	r30, r16
 2a0:	a0 80       	ld	r10, Z
 2a2:	b1 80       	ldd	r11, Z+1	; 0x01
 2a4:	26 ff       	sbrs	r18, 6
 2a6:	03 c0       	rjmp	.+6      	; 0x2ae <vfprintf+0x150>
 2a8:	65 2d       	mov	r22, r5
 2aa:	70 e0       	ldi	r23, 0x00	; 0
 2ac:	02 c0       	rjmp	.+4      	; 0x2b2 <vfprintf+0x154>
 2ae:	6f ef       	ldi	r22, 0xFF	; 255
 2b0:	7f ef       	ldi	r23, 0xFF	; 255
 2b2:	c5 01       	movw	r24, r10
 2b4:	2c 87       	std	Y+12, r18	; 0x0c
 2b6:	4c d1       	rcall	.+664    	; 0x550 <strnlen>
 2b8:	2c 01       	movw	r4, r24
 2ba:	83 01       	movw	r16, r6
 2bc:	2c 85       	ldd	r18, Y+12	; 0x0c
 2be:	2f 77       	andi	r18, 0x7F	; 127
 2c0:	22 2e       	mov	r2, r18
 2c2:	16 c0       	rjmp	.+44     	; 0x2f0 <vfprintf+0x192>
 2c4:	38 01       	movw	r6, r16
 2c6:	f2 e0       	ldi	r31, 0x02	; 2
 2c8:	6f 0e       	add	r6, r31
 2ca:	71 1c       	adc	r7, r1
 2cc:	f8 01       	movw	r30, r16
 2ce:	a0 80       	ld	r10, Z
 2d0:	b1 80       	ldd	r11, Z+1	; 0x01
 2d2:	26 ff       	sbrs	r18, 6
 2d4:	03 c0       	rjmp	.+6      	; 0x2dc <vfprintf+0x17e>
 2d6:	65 2d       	mov	r22, r5
 2d8:	70 e0       	ldi	r23, 0x00	; 0
 2da:	02 c0       	rjmp	.+4      	; 0x2e0 <vfprintf+0x182>
 2dc:	6f ef       	ldi	r22, 0xFF	; 255
 2de:	7f ef       	ldi	r23, 0xFF	; 255
 2e0:	c5 01       	movw	r24, r10
 2e2:	2c 87       	std	Y+12, r18	; 0x0c
 2e4:	2a d1       	rcall	.+596    	; 0x53a <strnlen_P>
 2e6:	2c 01       	movw	r4, r24
 2e8:	2c 85       	ldd	r18, Y+12	; 0x0c
 2ea:	20 68       	ori	r18, 0x80	; 128
 2ec:	22 2e       	mov	r2, r18
 2ee:	83 01       	movw	r16, r6
 2f0:	23 fc       	sbrc	r2, 3
 2f2:	19 c0       	rjmp	.+50     	; 0x326 <vfprintf+0x1c8>
 2f4:	83 2d       	mov	r24, r3
 2f6:	90 e0       	ldi	r25, 0x00	; 0
 2f8:	48 16       	cp	r4, r24
 2fa:	59 06       	cpc	r5, r25
 2fc:	a0 f4       	brcc	.+40     	; 0x326 <vfprintf+0x1c8>
 2fe:	b7 01       	movw	r22, r14
 300:	80 e2       	ldi	r24, 0x20	; 32
 302:	90 e0       	ldi	r25, 0x00	; 0
 304:	30 d1       	rcall	.+608    	; 0x566 <fputc>
 306:	3a 94       	dec	r3
 308:	f5 cf       	rjmp	.-22     	; 0x2f4 <vfprintf+0x196>
 30a:	f5 01       	movw	r30, r10
 30c:	27 fc       	sbrc	r2, 7
 30e:	85 91       	lpm	r24, Z+
 310:	27 fe       	sbrs	r2, 7
 312:	81 91       	ld	r24, Z+
 314:	5f 01       	movw	r10, r30
 316:	b7 01       	movw	r22, r14
 318:	90 e0       	ldi	r25, 0x00	; 0
 31a:	25 d1       	rcall	.+586    	; 0x566 <fputc>
 31c:	31 10       	cpse	r3, r1
 31e:	3a 94       	dec	r3
 320:	f1 e0       	ldi	r31, 0x01	; 1
 322:	4f 1a       	sub	r4, r31
 324:	51 08       	sbc	r5, r1
 326:	41 14       	cp	r4, r1
 328:	51 04       	cpc	r5, r1
 32a:	79 f7       	brne	.-34     	; 0x30a <vfprintf+0x1ac>
 32c:	de c0       	rjmp	.+444    	; 0x4ea <vfprintf+0x38c>
 32e:	84 36       	cpi	r24, 0x64	; 100
 330:	11 f0       	breq	.+4      	; 0x336 <vfprintf+0x1d8>
 332:	89 36       	cpi	r24, 0x69	; 105
 334:	31 f5       	brne	.+76     	; 0x382 <vfprintf+0x224>
 336:	f8 01       	movw	r30, r16
 338:	27 ff       	sbrs	r18, 7
 33a:	07 c0       	rjmp	.+14     	; 0x34a <vfprintf+0x1ec>
 33c:	60 81       	ld	r22, Z
 33e:	71 81       	ldd	r23, Z+1	; 0x01
 340:	82 81       	ldd	r24, Z+2	; 0x02
 342:	93 81       	ldd	r25, Z+3	; 0x03
 344:	0c 5f       	subi	r16, 0xFC	; 252
 346:	1f 4f       	sbci	r17, 0xFF	; 255
 348:	08 c0       	rjmp	.+16     	; 0x35a <vfprintf+0x1fc>
 34a:	60 81       	ld	r22, Z
 34c:	71 81       	ldd	r23, Z+1	; 0x01
 34e:	07 2e       	mov	r0, r23
 350:	00 0c       	add	r0, r0
 352:	88 0b       	sbc	r24, r24
 354:	99 0b       	sbc	r25, r25
 356:	0e 5f       	subi	r16, 0xFE	; 254
 358:	1f 4f       	sbci	r17, 0xFF	; 255
 35a:	2f 76       	andi	r18, 0x6F	; 111
 35c:	72 2e       	mov	r7, r18
 35e:	97 ff       	sbrs	r25, 7
 360:	09 c0       	rjmp	.+18     	; 0x374 <vfprintf+0x216>
 362:	90 95       	com	r25
 364:	80 95       	com	r24
 366:	70 95       	com	r23
 368:	61 95       	neg	r22
 36a:	7f 4f       	sbci	r23, 0xFF	; 255
 36c:	8f 4f       	sbci	r24, 0xFF	; 255
 36e:	9f 4f       	sbci	r25, 0xFF	; 255
 370:	20 68       	ori	r18, 0x80	; 128
 372:	72 2e       	mov	r7, r18
 374:	2a e0       	ldi	r18, 0x0A	; 10
 376:	30 e0       	ldi	r19, 0x00	; 0
 378:	a4 01       	movw	r20, r8
 37a:	2d d1       	rcall	.+602    	; 0x5d6 <__ultoa_invert>
 37c:	a8 2e       	mov	r10, r24
 37e:	a8 18       	sub	r10, r8
 380:	43 c0       	rjmp	.+134    	; 0x408 <vfprintf+0x2aa>
 382:	85 37       	cpi	r24, 0x75	; 117
 384:	29 f4       	brne	.+10     	; 0x390 <vfprintf+0x232>
 386:	2f 7e       	andi	r18, 0xEF	; 239
 388:	b2 2e       	mov	r11, r18
 38a:	2a e0       	ldi	r18, 0x0A	; 10
 38c:	30 e0       	ldi	r19, 0x00	; 0
 38e:	25 c0       	rjmp	.+74     	; 0x3da <vfprintf+0x27c>
 390:	f2 2f       	mov	r31, r18
 392:	f9 7f       	andi	r31, 0xF9	; 249
 394:	bf 2e       	mov	r11, r31
 396:	8f 36       	cpi	r24, 0x6F	; 111
 398:	c1 f0       	breq	.+48     	; 0x3ca <vfprintf+0x26c>
 39a:	18 f4       	brcc	.+6      	; 0x3a2 <vfprintf+0x244>
 39c:	88 35       	cpi	r24, 0x58	; 88
 39e:	79 f0       	breq	.+30     	; 0x3be <vfprintf+0x260>
 3a0:	ad c0       	rjmp	.+346    	; 0x4fc <vfprintf+0x39e>
 3a2:	80 37       	cpi	r24, 0x70	; 112
 3a4:	19 f0       	breq	.+6      	; 0x3ac <vfprintf+0x24e>
 3a6:	88 37       	cpi	r24, 0x78	; 120
 3a8:	21 f0       	breq	.+8      	; 0x3b2 <vfprintf+0x254>
 3aa:	a8 c0       	rjmp	.+336    	; 0x4fc <vfprintf+0x39e>
 3ac:	2f 2f       	mov	r18, r31
 3ae:	20 61       	ori	r18, 0x10	; 16
 3b0:	b2 2e       	mov	r11, r18
 3b2:	b4 fe       	sbrs	r11, 4
 3b4:	0d c0       	rjmp	.+26     	; 0x3d0 <vfprintf+0x272>
 3b6:	8b 2d       	mov	r24, r11
 3b8:	84 60       	ori	r24, 0x04	; 4
 3ba:	b8 2e       	mov	r11, r24
 3bc:	09 c0       	rjmp	.+18     	; 0x3d0 <vfprintf+0x272>
 3be:	24 ff       	sbrs	r18, 4
 3c0:	0a c0       	rjmp	.+20     	; 0x3d6 <vfprintf+0x278>
 3c2:	9f 2f       	mov	r25, r31
 3c4:	96 60       	ori	r25, 0x06	; 6
 3c6:	b9 2e       	mov	r11, r25
 3c8:	06 c0       	rjmp	.+12     	; 0x3d6 <vfprintf+0x278>
 3ca:	28 e0       	ldi	r18, 0x08	; 8
 3cc:	30 e0       	ldi	r19, 0x00	; 0
 3ce:	05 c0       	rjmp	.+10     	; 0x3da <vfprintf+0x27c>
 3d0:	20 e1       	ldi	r18, 0x10	; 16
 3d2:	30 e0       	ldi	r19, 0x00	; 0
 3d4:	02 c0       	rjmp	.+4      	; 0x3da <vfprintf+0x27c>
 3d6:	20 e1       	ldi	r18, 0x10	; 16
 3d8:	32 e0       	ldi	r19, 0x02	; 2
 3da:	f8 01       	movw	r30, r16
 3dc:	b7 fe       	sbrs	r11, 7
 3de:	07 c0       	rjmp	.+14     	; 0x3ee <vfprintf+0x290>
 3e0:	60 81       	ld	r22, Z
 3e2:	71 81       	ldd	r23, Z+1	; 0x01
 3e4:	82 81       	ldd	r24, Z+2	; 0x02
 3e6:	93 81       	ldd	r25, Z+3	; 0x03
 3e8:	0c 5f       	subi	r16, 0xFC	; 252
 3ea:	1f 4f       	sbci	r17, 0xFF	; 255
 3ec:	06 c0       	rjmp	.+12     	; 0x3fa <vfprintf+0x29c>
 3ee:	60 81       	ld	r22, Z
 3f0:	71 81       	ldd	r23, Z+1	; 0x01
 3f2:	80 e0       	ldi	r24, 0x00	; 0
 3f4:	90 e0       	ldi	r25, 0x00	; 0
 3f6:	0e 5f       	subi	r16, 0xFE	; 254
 3f8:	1f 4f       	sbci	r17, 0xFF	; 255
 3fa:	a4 01       	movw	r20, r8
 3fc:	ec d0       	rcall	.+472    	; 0x5d6 <__ultoa_invert>
 3fe:	a8 2e       	mov	r10, r24
 400:	a8 18       	sub	r10, r8
 402:	fb 2d       	mov	r31, r11
 404:	ff 77       	andi	r31, 0x7F	; 127
 406:	7f 2e       	mov	r7, r31
 408:	76 fe       	sbrs	r7, 6
 40a:	0b c0       	rjmp	.+22     	; 0x422 <vfprintf+0x2c4>
 40c:	37 2d       	mov	r19, r7
 40e:	3e 7f       	andi	r19, 0xFE	; 254
 410:	a5 14       	cp	r10, r5
 412:	50 f4       	brcc	.+20     	; 0x428 <vfprintf+0x2ca>
 414:	74 fe       	sbrs	r7, 4
 416:	0a c0       	rjmp	.+20     	; 0x42c <vfprintf+0x2ce>
 418:	72 fc       	sbrc	r7, 2
 41a:	08 c0       	rjmp	.+16     	; 0x42c <vfprintf+0x2ce>
 41c:	37 2d       	mov	r19, r7
 41e:	3e 7e       	andi	r19, 0xEE	; 238
 420:	05 c0       	rjmp	.+10     	; 0x42c <vfprintf+0x2ce>
 422:	ba 2c       	mov	r11, r10
 424:	37 2d       	mov	r19, r7
 426:	03 c0       	rjmp	.+6      	; 0x42e <vfprintf+0x2d0>
 428:	ba 2c       	mov	r11, r10
 42a:	01 c0       	rjmp	.+2      	; 0x42e <vfprintf+0x2d0>
 42c:	b5 2c       	mov	r11, r5
 42e:	34 ff       	sbrs	r19, 4
 430:	0d c0       	rjmp	.+26     	; 0x44c <vfprintf+0x2ee>
 432:	fe 01       	movw	r30, r28
 434:	ea 0d       	add	r30, r10
 436:	f1 1d       	adc	r31, r1
 438:	80 81       	ld	r24, Z
 43a:	80 33       	cpi	r24, 0x30	; 48
 43c:	11 f4       	brne	.+4      	; 0x442 <vfprintf+0x2e4>
 43e:	39 7e       	andi	r19, 0xE9	; 233
 440:	09 c0       	rjmp	.+18     	; 0x454 <vfprintf+0x2f6>
 442:	32 ff       	sbrs	r19, 2
 444:	06 c0       	rjmp	.+12     	; 0x452 <vfprintf+0x2f4>
 446:	b3 94       	inc	r11
 448:	b3 94       	inc	r11
 44a:	04 c0       	rjmp	.+8      	; 0x454 <vfprintf+0x2f6>
 44c:	83 2f       	mov	r24, r19
 44e:	86 78       	andi	r24, 0x86	; 134
 450:	09 f0       	breq	.+2      	; 0x454 <vfprintf+0x2f6>
 452:	b3 94       	inc	r11
 454:	33 fd       	sbrc	r19, 3
 456:	12 c0       	rjmp	.+36     	; 0x47c <vfprintf+0x31e>
 458:	30 ff       	sbrs	r19, 0
 45a:	06 c0       	rjmp	.+12     	; 0x468 <vfprintf+0x30a>
 45c:	5a 2c       	mov	r5, r10
 45e:	b3 14       	cp	r11, r3
 460:	18 f4       	brcc	.+6      	; 0x468 <vfprintf+0x30a>
 462:	53 0c       	add	r5, r3
 464:	5b 18       	sub	r5, r11
 466:	b3 2c       	mov	r11, r3
 468:	b3 14       	cp	r11, r3
 46a:	60 f4       	brcc	.+24     	; 0x484 <vfprintf+0x326>
 46c:	b7 01       	movw	r22, r14
 46e:	80 e2       	ldi	r24, 0x20	; 32
 470:	90 e0       	ldi	r25, 0x00	; 0
 472:	3c 87       	std	Y+12, r19	; 0x0c
 474:	78 d0       	rcall	.+240    	; 0x566 <fputc>
 476:	b3 94       	inc	r11
 478:	3c 85       	ldd	r19, Y+12	; 0x0c
 47a:	f6 cf       	rjmp	.-20     	; 0x468 <vfprintf+0x30a>
 47c:	b3 14       	cp	r11, r3
 47e:	10 f4       	brcc	.+4      	; 0x484 <vfprintf+0x326>
 480:	3b 18       	sub	r3, r11
 482:	01 c0       	rjmp	.+2      	; 0x486 <vfprintf+0x328>
 484:	31 2c       	mov	r3, r1
 486:	34 ff       	sbrs	r19, 4
 488:	11 c0       	rjmp	.+34     	; 0x4ac <vfprintf+0x34e>
 48a:	b7 01       	movw	r22, r14
 48c:	80 e3       	ldi	r24, 0x30	; 48
 48e:	90 e0       	ldi	r25, 0x00	; 0
 490:	3c 87       	std	Y+12, r19	; 0x0c
 492:	69 d0       	rcall	.+210    	; 0x566 <fputc>
 494:	3c 85       	ldd	r19, Y+12	; 0x0c
 496:	32 ff       	sbrs	r19, 2
 498:	16 c0       	rjmp	.+44     	; 0x4c6 <vfprintf+0x368>
 49a:	31 fd       	sbrc	r19, 1
 49c:	03 c0       	rjmp	.+6      	; 0x4a4 <vfprintf+0x346>
 49e:	88 e7       	ldi	r24, 0x78	; 120
 4a0:	90 e0       	ldi	r25, 0x00	; 0
 4a2:	02 c0       	rjmp	.+4      	; 0x4a8 <vfprintf+0x34a>
 4a4:	88 e5       	ldi	r24, 0x58	; 88
 4a6:	90 e0       	ldi	r25, 0x00	; 0
 4a8:	b7 01       	movw	r22, r14
 4aa:	0c c0       	rjmp	.+24     	; 0x4c4 <vfprintf+0x366>
 4ac:	83 2f       	mov	r24, r19
 4ae:	86 78       	andi	r24, 0x86	; 134
 4b0:	51 f0       	breq	.+20     	; 0x4c6 <vfprintf+0x368>
 4b2:	31 ff       	sbrs	r19, 1
 4b4:	02 c0       	rjmp	.+4      	; 0x4ba <vfprintf+0x35c>
 4b6:	8b e2       	ldi	r24, 0x2B	; 43
 4b8:	01 c0       	rjmp	.+2      	; 0x4bc <vfprintf+0x35e>
 4ba:	80 e2       	ldi	r24, 0x20	; 32
 4bc:	37 fd       	sbrc	r19, 7
 4be:	8d e2       	ldi	r24, 0x2D	; 45
 4c0:	b7 01       	movw	r22, r14
 4c2:	90 e0       	ldi	r25, 0x00	; 0
 4c4:	50 d0       	rcall	.+160    	; 0x566 <fputc>
 4c6:	a5 14       	cp	r10, r5
 4c8:	30 f4       	brcc	.+12     	; 0x4d6 <vfprintf+0x378>
 4ca:	b7 01       	movw	r22, r14
 4cc:	80 e3       	ldi	r24, 0x30	; 48
 4ce:	90 e0       	ldi	r25, 0x00	; 0
 4d0:	4a d0       	rcall	.+148    	; 0x566 <fputc>
 4d2:	5a 94       	dec	r5
 4d4:	f8 cf       	rjmp	.-16     	; 0x4c6 <vfprintf+0x368>
 4d6:	aa 94       	dec	r10
 4d8:	f4 01       	movw	r30, r8
 4da:	ea 0d       	add	r30, r10
 4dc:	f1 1d       	adc	r31, r1
 4de:	80 81       	ld	r24, Z
 4e0:	b7 01       	movw	r22, r14
 4e2:	90 e0       	ldi	r25, 0x00	; 0
 4e4:	40 d0       	rcall	.+128    	; 0x566 <fputc>
 4e6:	a1 10       	cpse	r10, r1
 4e8:	f6 cf       	rjmp	.-20     	; 0x4d6 <vfprintf+0x378>
 4ea:	33 20       	and	r3, r3
 4ec:	09 f4       	brne	.+2      	; 0x4f0 <vfprintf+0x392>
 4ee:	5d ce       	rjmp	.-838    	; 0x1aa <vfprintf+0x4c>
 4f0:	b7 01       	movw	r22, r14
 4f2:	80 e2       	ldi	r24, 0x20	; 32
 4f4:	90 e0       	ldi	r25, 0x00	; 0
 4f6:	37 d0       	rcall	.+110    	; 0x566 <fputc>
 4f8:	3a 94       	dec	r3
 4fa:	f7 cf       	rjmp	.-18     	; 0x4ea <vfprintf+0x38c>
 4fc:	f7 01       	movw	r30, r14
 4fe:	86 81       	ldd	r24, Z+6	; 0x06
 500:	97 81       	ldd	r25, Z+7	; 0x07
 502:	02 c0       	rjmp	.+4      	; 0x508 <vfprintf+0x3aa>
 504:	8f ef       	ldi	r24, 0xFF	; 255
 506:	9f ef       	ldi	r25, 0xFF	; 255
 508:	2c 96       	adiw	r28, 0x0c	; 12
 50a:	0f b6       	in	r0, 0x3f	; 63
 50c:	f8 94       	cli
 50e:	de bf       	out	0x3e, r29	; 62
 510:	0f be       	out	0x3f, r0	; 63
 512:	cd bf       	out	0x3d, r28	; 61
 514:	df 91       	pop	r29
 516:	cf 91       	pop	r28
 518:	1f 91       	pop	r17
 51a:	0f 91       	pop	r16
 51c:	ff 90       	pop	r15
 51e:	ef 90       	pop	r14
 520:	df 90       	pop	r13
 522:	cf 90       	pop	r12
 524:	bf 90       	pop	r11
 526:	af 90       	pop	r10
 528:	9f 90       	pop	r9
 52a:	8f 90       	pop	r8
 52c:	7f 90       	pop	r7
 52e:	6f 90       	pop	r6
 530:	5f 90       	pop	r5
 532:	4f 90       	pop	r4
 534:	3f 90       	pop	r3
 536:	2f 90       	pop	r2
 538:	08 95       	ret

0000053a <strnlen_P>:
 53a:	fc 01       	movw	r30, r24
 53c:	05 90       	lpm	r0, Z+
 53e:	61 50       	subi	r22, 0x01	; 1
 540:	70 40       	sbci	r23, 0x00	; 0
 542:	01 10       	cpse	r0, r1
 544:	d8 f7       	brcc	.-10     	; 0x53c <strnlen_P+0x2>
 546:	80 95       	com	r24
 548:	90 95       	com	r25
 54a:	8e 0f       	add	r24, r30
 54c:	9f 1f       	adc	r25, r31
 54e:	08 95       	ret

00000550 <strnlen>:
 550:	fc 01       	movw	r30, r24
 552:	61 50       	subi	r22, 0x01	; 1
 554:	70 40       	sbci	r23, 0x00	; 0
 556:	01 90       	ld	r0, Z+
 558:	01 10       	cpse	r0, r1
 55a:	d8 f7       	brcc	.-10     	; 0x552 <strnlen+0x2>
 55c:	80 95       	com	r24
 55e:	90 95       	com	r25
 560:	8e 0f       	add	r24, r30
 562:	9f 1f       	adc	r25, r31
 564:	08 95       	ret

00000566 <fputc>:
 566:	0f 93       	push	r16
 568:	1f 93       	push	r17
 56a:	cf 93       	push	r28
 56c:	df 93       	push	r29
 56e:	fb 01       	movw	r30, r22
 570:	23 81       	ldd	r18, Z+3	; 0x03
 572:	21 fd       	sbrc	r18, 1
 574:	03 c0       	rjmp	.+6      	; 0x57c <fputc+0x16>
 576:	8f ef       	ldi	r24, 0xFF	; 255
 578:	9f ef       	ldi	r25, 0xFF	; 255
 57a:	28 c0       	rjmp	.+80     	; 0x5cc <fputc+0x66>
 57c:	22 ff       	sbrs	r18, 2
 57e:	16 c0       	rjmp	.+44     	; 0x5ac <fputc+0x46>
 580:	46 81       	ldd	r20, Z+6	; 0x06
 582:	57 81       	ldd	r21, Z+7	; 0x07
 584:	24 81       	ldd	r18, Z+4	; 0x04
 586:	35 81       	ldd	r19, Z+5	; 0x05
 588:	42 17       	cp	r20, r18
 58a:	53 07       	cpc	r21, r19
 58c:	44 f4       	brge	.+16     	; 0x59e <fputc+0x38>
 58e:	a0 81       	ld	r26, Z
 590:	b1 81       	ldd	r27, Z+1	; 0x01
 592:	9d 01       	movw	r18, r26
 594:	2f 5f       	subi	r18, 0xFF	; 255
 596:	3f 4f       	sbci	r19, 0xFF	; 255
 598:	31 83       	std	Z+1, r19	; 0x01
 59a:	20 83       	st	Z, r18
 59c:	8c 93       	st	X, r24
 59e:	26 81       	ldd	r18, Z+6	; 0x06
 5a0:	37 81       	ldd	r19, Z+7	; 0x07
 5a2:	2f 5f       	subi	r18, 0xFF	; 255
 5a4:	3f 4f       	sbci	r19, 0xFF	; 255
 5a6:	37 83       	std	Z+7, r19	; 0x07
 5a8:	26 83       	std	Z+6, r18	; 0x06
 5aa:	10 c0       	rjmp	.+32     	; 0x5cc <fputc+0x66>
 5ac:	eb 01       	movw	r28, r22
 5ae:	09 2f       	mov	r16, r25
 5b0:	18 2f       	mov	r17, r24
 5b2:	00 84       	ldd	r0, Z+8	; 0x08
 5b4:	f1 85       	ldd	r31, Z+9	; 0x09
 5b6:	e0 2d       	mov	r30, r0
 5b8:	19 95       	eicall
 5ba:	89 2b       	or	r24, r25
 5bc:	e1 f6       	brne	.-72     	; 0x576 <fputc+0x10>
 5be:	8e 81       	ldd	r24, Y+6	; 0x06
 5c0:	9f 81       	ldd	r25, Y+7	; 0x07
 5c2:	01 96       	adiw	r24, 0x01	; 1
 5c4:	9f 83       	std	Y+7, r25	; 0x07
 5c6:	8e 83       	std	Y+6, r24	; 0x06
 5c8:	81 2f       	mov	r24, r17
 5ca:	90 2f       	mov	r25, r16
 5cc:	df 91       	pop	r29
 5ce:	cf 91       	pop	r28
 5d0:	1f 91       	pop	r17
 5d2:	0f 91       	pop	r16
 5d4:	08 95       	ret

000005d6 <__ultoa_invert>:
 5d6:	fa 01       	movw	r30, r20
 5d8:	aa 27       	eor	r26, r26
 5da:	28 30       	cpi	r18, 0x08	; 8
 5dc:	51 f1       	breq	.+84     	; 0x632 <__ultoa_invert+0x5c>
 5de:	20 31       	cpi	r18, 0x10	; 16
 5e0:	81 f1       	breq	.+96     	; 0x642 <__ultoa_invert+0x6c>
 5e2:	e8 94       	clt
 5e4:	6f 93       	push	r22
 5e6:	6e 7f       	andi	r22, 0xFE	; 254
 5e8:	6e 5f       	subi	r22, 0xFE	; 254
 5ea:	7f 4f       	sbci	r23, 0xFF	; 255
 5ec:	8f 4f       	sbci	r24, 0xFF	; 255
 5ee:	9f 4f       	sbci	r25, 0xFF	; 255
 5f0:	af 4f       	sbci	r26, 0xFF	; 255
 5f2:	b1 e0       	ldi	r27, 0x01	; 1
 5f4:	3e d0       	rcall	.+124    	; 0x672 <__ultoa_invert+0x9c>
 5f6:	b4 e0       	ldi	r27, 0x04	; 4
 5f8:	3c d0       	rcall	.+120    	; 0x672 <__ultoa_invert+0x9c>
 5fa:	67 0f       	add	r22, r23
 5fc:	78 1f       	adc	r23, r24
 5fe:	89 1f       	adc	r24, r25
 600:	9a 1f       	adc	r25, r26
 602:	a1 1d       	adc	r26, r1
 604:	68 0f       	add	r22, r24
 606:	79 1f       	adc	r23, r25
 608:	8a 1f       	adc	r24, r26
 60a:	91 1d       	adc	r25, r1
 60c:	a1 1d       	adc	r26, r1
 60e:	6a 0f       	add	r22, r26
 610:	71 1d       	adc	r23, r1
 612:	81 1d       	adc	r24, r1
 614:	91 1d       	adc	r25, r1
 616:	a1 1d       	adc	r26, r1
 618:	20 d0       	rcall	.+64     	; 0x65a <__ultoa_invert+0x84>
 61a:	09 f4       	brne	.+2      	; 0x61e <__ultoa_invert+0x48>
 61c:	68 94       	set
 61e:	3f 91       	pop	r19
 620:	2a e0       	ldi	r18, 0x0A	; 10
 622:	26 9f       	mul	r18, r22
 624:	11 24       	eor	r1, r1
 626:	30 19       	sub	r19, r0
 628:	30 5d       	subi	r19, 0xD0	; 208
 62a:	31 93       	st	Z+, r19
 62c:	de f6       	brtc	.-74     	; 0x5e4 <__ultoa_invert+0xe>
 62e:	cf 01       	movw	r24, r30
 630:	08 95       	ret
 632:	46 2f       	mov	r20, r22
 634:	47 70       	andi	r20, 0x07	; 7
 636:	40 5d       	subi	r20, 0xD0	; 208
 638:	41 93       	st	Z+, r20
 63a:	b3 e0       	ldi	r27, 0x03	; 3
 63c:	0f d0       	rcall	.+30     	; 0x65c <__ultoa_invert+0x86>
 63e:	c9 f7       	brne	.-14     	; 0x632 <__ultoa_invert+0x5c>
 640:	f6 cf       	rjmp	.-20     	; 0x62e <__ultoa_invert+0x58>
 642:	46 2f       	mov	r20, r22
 644:	4f 70       	andi	r20, 0x0F	; 15
 646:	40 5d       	subi	r20, 0xD0	; 208
 648:	4a 33       	cpi	r20, 0x3A	; 58
 64a:	18 f0       	brcs	.+6      	; 0x652 <__ultoa_invert+0x7c>
 64c:	49 5d       	subi	r20, 0xD9	; 217
 64e:	31 fd       	sbrc	r19, 1
 650:	40 52       	subi	r20, 0x20	; 32
 652:	41 93       	st	Z+, r20
 654:	02 d0       	rcall	.+4      	; 0x65a <__ultoa_invert+0x84>
 656:	a9 f7       	brne	.-22     	; 0x642 <__ultoa_invert+0x6c>
 658:	ea cf       	rjmp	.-44     	; 0x62e <__ultoa_invert+0x58>
 65a:	b4 e0       	ldi	r27, 0x04	; 4
 65c:	a6 95       	lsr	r26
 65e:	97 95       	ror	r25
 660:	87 95       	ror	r24
 662:	77 95       	ror	r23
 664:	67 95       	ror	r22
 666:	ba 95       	dec	r27
 668:	c9 f7       	brne	.-14     	; 0x65c <__ultoa_invert+0x86>
 66a:	00 97       	sbiw	r24, 0x00	; 0
 66c:	61 05       	cpc	r22, r1
 66e:	71 05       	cpc	r23, r1
 670:	08 95       	ret
 672:	9b 01       	movw	r18, r22
 674:	ac 01       	movw	r20, r24
 676:	0a 2e       	mov	r0, r26
 678:	06 94       	lsr	r0
 67a:	57 95       	ror	r21
 67c:	47 95       	ror	r20
 67e:	37 95       	ror	r19
 680:	27 95       	ror	r18
 682:	ba 95       	dec	r27
 684:	c9 f7       	brne	.-14     	; 0x678 <__ultoa_invert+0xa2>
 686:	62 0f       	add	r22, r18
 688:	73 1f       	adc	r23, r19
 68a:	84 1f       	adc	r24, r20
 68c:	95 1f       	adc	r25, r21
 68e:	a0 1d       	adc	r26, r0
 690:	08 95       	ret

00000692 <_exit>:
 692:	f8 94       	cli

00000694 <__stop_program>:
 694:	ff cf       	rjmp	.-2      	; 0x694 <__stop_program>
